; Function Attrs: nounwind uwtable
define dso_local noundef i32 @cr_copy(ptr nocapture noundef %0, ptr nocapture noundef readonly %1) local_unnamed_addr #5 {
  %3 = load i32, ptr %1, align 8
  %4 = getelementptr inbounds i8, ptr %0, i64 4
  %5 = load i32, ptr %4, align 4
  %6 = icmp slt i32 %5, %3
  br i1 %6, label %7, label %._crit_edge

._crit_edge:                                      ; preds = %2
  %.phi.trans.insert = getelementptr inbounds i8, ptr %0, i64 8
  %.pre = load ptr, ptr %.phi.trans.insert, align 8
  br label %20

7:                                                ; preds = %2
  %8 = mul i32 %5, 3
  %9 = sdiv i32 %8, 2
  %..i.i = tail call noundef i32 @llvm.smax.i32(i32 %3, i32 %9)
  %10 = getelementptr inbounds i8, ptr %0, i64 24
  %11 = load ptr, ptr %10, align 8
  %12 = getelementptr inbounds i8, ptr %0, i64 16
  %13 = load ptr, ptr %12, align 8
  %14 = getelementptr inbounds i8, ptr %0, i64 8
  %15 = load ptr, ptr %14, align 8
  %16 = sext i32 %..i.i to i64
  %17 = shl nsw i64 %16, 2
  %18 = tail call ptr %11(ptr noundef %13, ptr noundef %15, i64 noundef %17) #20
  %.not.i = icmp eq ptr %18, null
  br i1 %.not.i, label %cr_realloc.exit, label %19

19:                                               ; preds = %7
  store ptr %18, ptr %14, align 8
  store i32 %..i.i, ptr %4, align 4
  %.pre9 = load i32, ptr %1, align 8
  br label %20

20:                                               ; preds = %._crit_edge, %19
  %21 = phi i32 [ %3, %._crit_edge ], [ %.pre9, %19 ]
  %22 = phi ptr [ %.pre, %._crit_edge ], [ %18, %19 ]
  %23 = getelementptr inbounds i8, ptr %1, i64 8
  %24 = load ptr, ptr %23, align 8
  %25 = sext i32 %21 to i64
  %26 = shl nsw i64 %25, 2
  tail call void @llvm.memcpy.p0.p0.i64(ptr align 4 %22, ptr align 4 %24, i64 %26, i1 false)
  %27 = load i32, ptr %1, align 8
  store i32 %27, ptr %0, align 8
  br label %cr_realloc.exit

cr_realloc.exit:                                  ; preds = %7, %20
  %.0 = phi i32 [ 0, %20 ], [ -1, %7 ]
  ret i32 %.0
}